target datalayout = "e-m:e-p270:32:32-p271:32:32-p272:64:64-i64:64-i128:128-f80:128-n8:16:32:64-S128"
target triple = "x86_64-pc-linux-gnu"

%struct._address = type { i32, i32, ptr, ptr }
%struct.sip_hash_key = type { [128 x i8], %struct._address, i32, %struct._address, i32, i32 }

; Function Attrs: inlinehint nounwind null_pointer_is_valid sspstrong uwtable
define internal zeroext i1 @addresses_equal(ptr noundef %0, ptr noundef %1) #3 {
  %3 = alloca i1, align 1
  %4 = alloca ptr, align 8
  %5 = alloca ptr, align 8
  store ptr %0, ptr %4, align 8
  store ptr %1, ptr %5, align 8
  %6 = load ptr, ptr %4, align 8
  %7 = getelementptr inbounds nuw %struct._address, ptr %6, i32 0, i32 0
  %8 = load i32, ptr %7, align 8
  %9 = load ptr, ptr %5, align 8
  %10 = getelementptr inbounds nuw %struct._address, ptr %9, i32 0, i32 0
  %11 = load i32, ptr %10, align 8
  %12 = icmp eq i32 %8, %11
  br i1 %12, label %13, label %40

13:                                               ; preds = %2
  %14 = load ptr, ptr %4, align 8
  %15 = getelementptr inbounds nuw %struct._address, ptr %14, i32 0, i32 1
  %16 = load i32, ptr %15, align 4
  %17 = load ptr, ptr %5, align 8
  %18 = getelementptr inbounds nuw %struct._address, ptr %17, i32 0, i32 1
  %19 = load i32, ptr %18, align 4
  %20 = icmp eq i32 %16, %19
  br i1 %20, label %21, label %40

21:                                               ; preds = %13
  %22 = load ptr, ptr %4, align 8
  %23 = getelementptr inbounds nuw %struct._address, ptr %22, i32 0, i32 1
  %24 = load i32, ptr %23, align 4
  %25 = icmp eq i32 %24, 0
  br i1 %25, label %39, label %26

26:                                               ; preds = %21
  %27 = load ptr, ptr %4, align 8
  %28 = getelementptr inbounds nuw %struct._address, ptr %27, i32 0, i32 2
  %29 = load ptr, ptr %28, align 8
  %30 = load ptr, ptr %5, align 8
  %31 = getelementptr inbounds nuw %struct._address, ptr %30, i32 0, i32 2
  %32 = load ptr, ptr %31, align 8
  %33 = load ptr, ptr %4, align 8
  %34 = getelementptr inbounds nuw %struct._address, ptr %33, i32 0, i32 1
  %35 = load i32, ptr %34, align 4
  %36 = sext i32 %35 to i64
  %37 = call i32 @memcmp(ptr noundef %29, ptr noundef %32, i64 noundef %36) #19
  %38 = icmp eq i32 %37, 0
  br i1 %38, label %39, label %40

39:                                               ; preds = %26, %21
  store i1 true, ptr %3, align 1
  br label %41

40:                                               ; preds = %26, %13, %2
  store i1 false, ptr %3, align 1
  br label %41

41:                                               ; preds = %40, %39
  %42 = load i1, ptr %3, align 1
  ret i1 %42
}

; Function Attrs: null_pointer_is_valid sspstrong uwtable
define internal i32 @sip_equal(ptr noundef %0, ptr noundef %1) #0 {
  %3 = alloca i32, align 4
  %4 = alloca ptr, align 8
  %5 = alloca ptr, align 8
  %6 = alloca ptr, align 8
  %7 = alloca ptr, align 8
  %8 = alloca i32, align 4
  store ptr %0, ptr %4, align 8
  store ptr %1, ptr %5, align 8
  call void @llvm.lifetime.start.p0(i64 8, ptr %6) #18
  %9 = load ptr, ptr %4, align 8
  store ptr %9, ptr %6, align 8
  call void @llvm.lifetime.start.p0(i64 8, ptr %7) #18
  %10 = load ptr, ptr %5, align 8
  store ptr %10, ptr %7, align 8
  %11 = load ptr, ptr %6, align 8
  %12 = getelementptr inbounds nuw %struct.sip_hash_key, ptr %11, i32 0, i32 0
  %13 = getelementptr inbounds [128 x i8], ptr %12, i64 0, i64 0
  %14 = load ptr, ptr %7, align 8
  %15 = getelementptr inbounds nuw %struct.sip_hash_key, ptr %14, i32 0, i32 0
  %16 = getelementptr inbounds [128 x i8], ptr %15, i64 0, i64 0
  %17 = call i32 @strcmp(ptr noundef %13, ptr noundef %16) #19
  %18 = icmp ne i32 %17, 0
  br i1 %18, label %19, label %20

19:                                               ; preds = %2
  store i32 0, ptr %3, align 4
  store i32 1, ptr %8, align 4
  br label %59

20:                                               ; preds = %2
  %21 = load ptr, ptr %6, align 8
  %22 = getelementptr inbounds nuw %struct.sip_hash_key, ptr %21, i32 0, i32 1
  %23 = load ptr, ptr %7, align 8
  %24 = getelementptr inbounds nuw %struct.sip_hash_key, ptr %23, i32 0, i32 1
  %25 = call zeroext i1 @addresses_equal(ptr noundef %22, ptr noundef %24)
  br i1 %25, label %26, label %56

26:                                               ; preds = %20
  %27 = load ptr, ptr %6, align 8
  %28 = getelementptr inbounds nuw %struct.sip_hash_key, ptr %27, i32 0, i32 2
  %29 = load i32, ptr %28, align 8
  %30 = load ptr, ptr %7, align 8
  %31 = getelementptr inbounds nuw %struct.sip_hash_key, ptr %30, i32 0, i32 2
  %32 = load i32, ptr %31, align 8
  %33 = icmp eq i32 %29, %32
  br i1 %33, label %34, label %56

34:                                               ; preds = %26
  %35 = load ptr, ptr %6, align 8
  %36 = getelementptr inbounds nuw %struct.sip_hash_key, ptr %35, i32 0, i32 3
  %37 = load ptr, ptr %7, align 8
  %38 = getelementptr inbounds nuw %struct.sip_hash_key, ptr %37, i32 0, i32 3
  %39 = call zeroext i1 @addresses_equal(ptr noundef %36, ptr noundef %38)
  br i1 %39, label %40, label %56

40:                                               ; preds = %34
  %41 = load ptr, ptr %6, align 8
  %42 = getelementptr inbounds nuw %struct.sip_hash_key, ptr %41, i32 0, i32 4
  %43 = load i32, ptr %42, align 8
  %44 = load ptr, ptr %7, align 8
  %45 = getelementptr inbounds nuw %struct.sip_hash_key, ptr %44, i32 0, i32 4
  %46 = load i32, ptr %45, align 8
  %47 = icmp eq i32 %43, %46
  br i1 %47, label %48, label %56

48:                                               ; preds = %40
  %49 = load ptr, ptr %6, align 8
  %50 = getelementptr inbounds nuw %struct.sip_hash_key, ptr %49, i32 0, i32 5
  %51 = load i32, ptr %50, align 4
  %52 = load ptr, ptr %7, align 8
  %53 = getelementptr inbounds nuw %struct.sip_hash_key, ptr %52, i32 0, i32 5
  %54 = load i32, ptr %53, align 4
  %55 = icmp eq i32 %51, %54
  br label %56

56:                                               ; preds = %48, %40, %34, %26, %20
  %57 = phi i1 [ false, %40 ], [ false, %34 ], [ false, %26 ], [ false, %20 ], [ %55, %48 ]
  %58 = zext i1 %57 to i32
  store i32 %58, ptr %3, align 4
  store i32 1, ptr %8, align 4
  br label %59

59:                                               ; preds = %56, %19
  call void @llvm.lifetime.end.p0(i64 8, ptr %7) #18
  call void @llvm.lifetime.end.p0(i64 8, ptr %6) #18
  %60 = load i32, ptr %3, align 4
  ret i32 %60
}