; Function Attrs: mustprogress nofree nounwind null_pointer_is_valid sspstrong willreturn memory(read, inaccessiblemem: none) uwtable
define internal range(i32 0, 2) i32 @sip_equal(ptr noundef readonly captures(none) %0, ptr noundef readonly captures(none) %1) #15 {
  %3 = tail call i32 @strcmp(ptr noundef %0, ptr noundef %1) #19
  %.not = icmp eq i32 %3, 0
  br i1 %.not, label %4, label %addresses_equal.exit

4:                                                ; preds = %2
  %5 = getelementptr inbounds nuw i8, ptr %0, i64 128
  %6 = getelementptr inbounds nuw i8, ptr %1, i64 128
  %7 = load i32, ptr %5, align 8
  %8 = load i32, ptr %6, align 8
  %9 = icmp eq i32 %7, %8
  br i1 %9, label %10, label %addresses_equal.exit

10:                                               ; preds = %4
  %11 = getelementptr inbounds nuw i8, ptr %0, i64 132
  %12 = load i32, ptr %11, align 4
  %13 = getelementptr inbounds nuw i8, ptr %1, i64 132
  %14 = load i32, ptr %13, align 4
  %15 = icmp eq i32 %12, %14
  br i1 %15, label %16, label %addresses_equal.exit

16:                                               ; preds = %10
  %17 = icmp eq i32 %12, 0
  br i1 %17, label %25, label %18

18:                                               ; preds = %16
  %19 = getelementptr inbounds nuw i8, ptr %0, i64 136
  %20 = load ptr, ptr %19, align 8
  %21 = getelementptr inbounds nuw i8, ptr %1, i64 136
  %22 = load ptr, ptr %21, align 8
  %23 = sext i32 %12 to i64
  %bcmp.i = tail call i32 @bcmp(ptr %20, ptr %22, i64 %23)
  %24 = icmp eq i32 %bcmp.i, 0
  br i1 %24, label %25, label %addresses_equal.exit

25:                                               ; preds = %18, %16
  %26 = getelementptr inbounds nuw i8, ptr %0, i64 152
  %27 = load i32, ptr %26, align 8
  %28 = getelementptr inbounds nuw i8, ptr %1, i64 152
  %29 = load i32, ptr %28, align 8
  %30 = icmp eq i32 %27, %29
  br i1 %30, label %31, label %addresses_equal.exit

31:                                               ; preds = %25
  %32 = getelementptr inbounds nuw i8, ptr %0, i64 160
  %33 = getelementptr inbounds nuw i8, ptr %1, i64 160
  %34 = load i32, ptr %32, align 8
  %35 = load i32, ptr %33, align 8
  %36 = icmp eq i32 %34, %35
  br i1 %36, label %37, label %addresses_equal.exit

37:                                               ; preds = %31
  %38 = getelementptr inbounds nuw i8, ptr %0, i64 164
  %39 = load i32, ptr %38, align 4
  %40 = getelementptr inbounds nuw i8, ptr %1, i64 164
  %41 = load i32, ptr %40, align 4
  %42 = icmp eq i32 %39, %41
  br i1 %42, label %43, label %addresses_equal.exit

43:                                               ; preds = %37
  %44 = icmp eq i32 %39, 0
  br i1 %44, label %52, label %45

45:                                               ; preds = %43
  %46 = getelementptr inbounds nuw i8, ptr %0, i64 168
  %47 = load ptr, ptr %46, align 8
  %48 = getelementptr inbounds nuw i8, ptr %1, i64 168
  %49 = load ptr, ptr %48, align 8
  %50 = sext i32 %39 to i64
  %bcmp.i15 = tail call i32 @bcmp(ptr %47, ptr %49, i64 %50)
  %51 = icmp eq i32 %bcmp.i15, 0
  br i1 %51, label %52, label %addresses_equal.exit

52:                                               ; preds = %45, %43
  %53 = getelementptr inbounds nuw i8, ptr %0, i64 184
  %54 = load i32, ptr %53, align 8
  %55 = getelementptr inbounds nuw i8, ptr %1, i64 184
  %56 = load i32, ptr %55, align 8
  %57 = icmp eq i32 %54, %56
  br i1 %57, label %58, label %addresses_equal.exit

58:                                               ; preds = %52
  %59 = getelementptr inbounds nuw i8, ptr %0, i64 188
  %60 = load i32, ptr %59, align 4
  %61 = getelementptr inbounds nuw i8, ptr %1, i64 188
  %62 = load i32, ptr %61, align 4
  %63 = icmp eq i32 %60, %62
  %64 = zext i1 %63 to i32
  br label %addresses_equal.exit

addresses_equal.exit:                             ; preds = %45, %37, %31, %18, %10, %4, %25, %52, %58, %2
  %.0 = phi i32 [ 0, %2 ], [ 0, %52 ], [ 0, %25 ], [ %64, %58 ], [ 0, %4 ], [ 0, %10 ], [ 0, %18 ], [ 0, %31 ], [ 0, %37 ], [ 0, %45 ]
  ret i32 %.0
}